; Function Attrs: nounwind uwtable
define internal fastcc i32 @legacy_asn1_ctrl_to_param(ptr noundef nonnull %0, i32 noundef range(i32 3, 11) %1, ptr noundef writeonly captures(none) %2) unnamed_addr #0 {
  %4 = alloca i32, align 4
  %5 = alloca [80 x i8], align 16
  %6 = alloca i32, align 4
  %7 = getelementptr inbounds nuw i8, ptr %0, i64 96
  %8 = load ptr, ptr %7, align 8, !tbaa !30
  %9 = icmp eq ptr %8, null
  br i1 %9, label %45, label %10

10:                                               ; preds = %3
  %cond = icmp eq i32 %1, 3
  br i1 %cond, label %11, label %45

11:                                               ; preds = %10
  call void @llvm.lifetime.start.p0(i64 80, ptr nonnull %5) #12
  call void @llvm.memset.p0.i64(ptr noundef nonnull align 16 dereferenceable(80) %5, i8 0, i64 80, i1 false)
  %12 = getelementptr inbounds nuw i8, ptr %0, i64 8
  %13 = load ptr, ptr %12, align 8, !tbaa !20
  %14 = icmp eq ptr %13, null
  br i1 %14, label %15, label %19

15:                                               ; preds = %11
  %16 = getelementptr inbounds nuw i8, ptr %0, i64 104
  %17 = load ptr, ptr %16, align 8, !tbaa !33
  %18 = call i32 @evp_keymgmt_util_get_deflt_digest_name(ptr noundef nonnull %8, ptr noundef %17, ptr noundef nonnull %5, i64 noundef 80) #12
  br label %EVP_PKEY_get_default_digest_name.exit

19:                                               ; preds = %11
  call void @llvm.lifetime.start.p0(i64 4, ptr nonnull %4) #12
  store i32 0, ptr %4, align 4, !tbaa !74
  %20 = getelementptr inbounds nuw i8, ptr %13, i64 176
  %21 = load ptr, ptr %20, align 8, !tbaa !94
  %22 = icmp eq ptr %21, null
  br i1 %22, label %.thread, label %EVP_PKEY_get_default_digest_nid.exit

EVP_PKEY_get_default_digest_nid.exit:             ; preds = %19
  %23 = call i32 %21(ptr noundef nonnull %0, i32 noundef 3, i64 noundef 0, ptr noundef nonnull %4) #12
  %24 = icmp sgt i32 %23, 0
  br i1 %24, label %25, label %.thread

25:                                               ; preds = %EVP_PKEY_get_default_digest_nid.exit
  %26 = load i32, ptr %4, align 4, !tbaa !74
  %27 = call ptr @OBJ_nid2sn(i32 noundef %26) #12
  %28 = call i64 @OPENSSL_strlcpy(ptr noundef nonnull %5, ptr noundef %27, i64 noundef 80) #12
  br label %.thread

.thread:                                          ; preds = %19, %EVP_PKEY_get_default_digest_nid.exit, %25
  %.0.i.i2022 = phi i32 [ %23, %25 ], [ %23, %EVP_PKEY_get_default_digest_nid.exit ], [ -2, %19 ]
  call void @llvm.lifetime.end.p0(i64 4, ptr nonnull %4) #12
  br label %EVP_PKEY_get_default_digest_name.exit

EVP_PKEY_get_default_digest_name.exit:            ; preds = %15, %.thread
  %.0.i = phi i32 [ %18, %15 ], [ %.0.i.i2022, %.thread ]
  %29 = icmp sgt i32 %.0.i, 0
  br i1 %29, label %30, label %44

30:                                               ; preds = %EVP_PKEY_get_default_digest_name.exit
  %31 = load ptr, ptr %7, align 8, !tbaa !30
  %32 = getelementptr inbounds nuw i8, ptr %31, i64 32
  %33 = load ptr, ptr %32, align 8, !tbaa !42
  %34 = call ptr @ossl_provider_libctx(ptr noundef %33) #12
  call void @llvm.lifetime.start.p0(i64 4, ptr nonnull %6) #12
  store i32 0, ptr %6, align 4, !tbaa !74
  %35 = call i32 @ERR_set_mark() #12
  %36 = call ptr @EVP_MD_fetch(ptr noundef %34, ptr noundef nonnull %5, ptr noundef null) #12
  %37 = call i32 @ERR_pop_to_mark() #12
  %38 = call ptr @ossl_namemap_stored(ptr noundef %34) #12
  call void @EVP_MD_free(ptr noundef %36) #12
  %39 = call i32 @ossl_namemap_name2num(ptr noundef %38, ptr noundef nonnull %5) #12
  %40 = icmp eq i32 %39, 0
  br i1 %40, label %.sink.split, label %41

41:                                               ; preds = %30
  %42 = call i32 @ossl_namemap_doall_names(ptr noundef %38, i32 noundef %39, ptr noundef nonnull @mdname2nid, ptr noundef nonnull %6) #12
  %.not = icmp eq i32 %42, 0
  br i1 %.not, label %.sink.split, label %.critedge

.critedge:                                        ; preds = %41
  %43 = load i32, ptr %6, align 4, !tbaa !74
  store i32 %43, ptr %2, align 4, !tbaa !74
  br label %.sink.split

.sink.split:                                      ; preds = %30, %41, %.critedge
  %.2.ph = phi i32 [ %.0.i, %.critedge ], [ 0, %41 ], [ 0, %30 ]
  call void @llvm.lifetime.end.p0(i64 4, ptr nonnull %6) #12
  br label %44

44:                                               ; preds = %.sink.split, %EVP_PKEY_get_default_digest_name.exit
  %.2 = phi i32 [ %.0.i, %EVP_PKEY_get_default_digest_name.exit ], [ %.2.ph, %.sink.split ]
  call void @llvm.lifetime.end.p0(i64 80, ptr nonnull %5) #12
  br label %45

45:                                               ; preds = %10, %3, %44
  %.016 = phi i32 [ %.2, %44 ], [ 0, %3 ], [ -2, %10 ]
  ret i32 %.016
}